; ModuleID = '20/114.c'
source_filename = "20/114.c"
target datalayout = "e-m:e-p270:32:32-p271:32:32-p272:64:64-i64:64-f80:128-n8:16:32:64-S128"
target triple = "x86_64-pc-linux-gnu"

@.str = private unnamed_addr constant [6 x i8] c"%s %s\00", align 1
@.str.1 = private unnamed_addr constant [3 x i8] c"%c\00", align 1
@.str.2 = private unnamed_addr constant [3 x i8] c"%s\00", align 1
@.str.3 = private unnamed_addr constant [2 x i8] c"\0A\00", align 1

; Function Attrs: noinline nounwind uwtable
define dso_local void @charu() #0 {
  %1 = alloca [11 x i8], align 1
  %2 = alloca [4 x i8], align 1
  %3 = alloca i8, align 1
  %4 = alloca [11 x i8], align 1
  %5 = alloca i32, align 4
  %6 = alloca i32, align 4
  %7 = alloca i32, align 4
  store i32 0, i32* %5, align 4
  %8 = getelementptr inbounds [11 x i8], [11 x i8]* %1, i64 0, i64 0
  %9 = getelementptr inbounds [4 x i8], [4 x i8]* %2, i64 0, i64 0
  %10 = call i32 (i8*, ...) @__isoc99_scanf(i8* getelementptr inbounds ([6 x i8], [6 x i8]* @.str, i64 0, i64 0), i8* %8, i8* %9)
  %11 = getelementptr inbounds [11 x i8], [11 x i8]* %1, i64 0, i64 0
  %12 = call i64 @strlen(i8* %11) #3
  %13 = trunc i64 %12 to i32
  store i32 %13, i32* %6, align 4
  %14 = getelementptr inbounds [11 x i8], [11 x i8]* %1, i64 0, i64 0
  %15 = call i64 @strlen(i8* %14) #3
  %16 = icmp uge i64 %15, 11
  br i1 %16, label %21, label %17

17:                                               ; preds = %0
  %18 = getelementptr inbounds [4 x i8], [4 x i8]* %2, i64 0, i64 0
  %19 = call i64 @strlen(i8* %18) #3
  %20 = icmp uge i64 %19, 4
  br i1 %20, label %21, label %22

21:                                               ; preds = %17, %0
  br label %152

22:                                               ; preds = %17
  store i32 0, i32* %5, align 4
  br label %23

23:                                               ; preds = %35, %22
  %24 = load i32, i32* %5, align 4
  %25 = load i32, i32* %6, align 4
  %26 = icmp slt i32 %24, %25
  br i1 %26, label %27, label %38

27:                                               ; preds = %23
  %28 = load i32, i32* %5, align 4
  %29 = sext i32 %28 to i64
  %30 = getelementptr inbounds [11 x i8], [11 x i8]* %1, i64 0, i64 %29
  %31 = load i8, i8* %30, align 1
  %32 = load i32, i32* %5, align 4
  %33 = sext i32 %32 to i64
  %34 = getelementptr inbounds [11 x i8], [11 x i8]* %4, i64 0, i64 %33
  store i8 %31, i8* %34, align 1
  br label %35

35:                                               ; preds = %27
  %36 = load i32, i32* %5, align 4
  %37 = add nsw i32 %36, 1
  store i32 %37, i32* %5, align 4
  br label %23

38:                                               ; preds = %23
  %39 = load i32, i32* %6, align 4
  store i32 %39, i32* %5, align 4
  br label %40

40:                                               ; preds = %47, %38
  %41 = load i32, i32* %5, align 4
  %42 = icmp slt i32 %41, 11
  br i1 %42, label %43, label %50

43:                                               ; preds = %40
  %44 = load i32, i32* %5, align 4
  %45 = sext i32 %44 to i64
  %46 = getelementptr inbounds [11 x i8], [11 x i8]* %4, i64 0, i64 %45
  store i8 0, i8* %46, align 1
  br label %47

47:                                               ; preds = %43
  %48 = load i32, i32* %5, align 4
  %49 = add nsw i32 %48, 1
  store i32 %49, i32* %5, align 4
  br label %40

50:                                               ; preds = %40
  store i32 0, i32* %5, align 4
  br label %51

51:                                               ; preds = %88, %50
  %52 = load i32, i32* %5, align 4
  %53 = load i32, i32* %6, align 4
  %54 = sub nsw i32 %53, 1
  %55 = icmp slt i32 %52, %54
  br i1 %55, label %56, label %91

56:                                               ; preds = %51
  %57 = load i32, i32* %5, align 4
  %58 = sext i32 %57 to i64
  %59 = getelementptr inbounds [11 x i8], [11 x i8]* %4, i64 0, i64 %58
  %60 = load i8, i8* %59, align 1
  %61 = sext i8 %60 to i32
  %62 = load i32, i32* %5, align 4
  %63 = add nsw i32 %62, 1
  %64 = sext i32 %63 to i64
  %65 = getelementptr inbounds [11 x i8], [11 x i8]* %4, i64 0, i64 %64
  %66 = load i8, i8* %65, align 1
  %67 = sext i8 %66 to i32
  %68 = icmp sgt i32 %61, %67
  br i1 %68, label %69, label %87

69:                                               ; preds = %56
  %70 = load i32, i32* %5, align 4
  %71 = sext i32 %70 to i64
  %72 = getelementptr inbounds [11 x i8], [11 x i8]* %4, i64 0, i64 %71
  %73 = load i8, i8* %72, align 1
  store i8 %73, i8* %3, align 1
  %74 = load i32, i32* %5, align 4
  %75 = add nsw i32 %74, 1
  %76 = sext i32 %75 to i64
  %77 = getelementptr inbounds [11 x i8], [11 x i8]* %4, i64 0, i64 %76
  %78 = load i8, i8* %77, align 1
  %79 = load i32, i32* %5, align 4
  %80 = sext i32 %79 to i64
  %81 = getelementptr inbounds [11 x i8], [11 x i8]* %4, i64 0, i64 %80
  store i8 %78, i8* %81, align 1
  %82 = load i8, i8* %3, align 1
  %83 = load i32, i32* %5, align 4
  %84 = add nsw i32 %83, 1
  %85 = sext i32 %84 to i64
  %86 = getelementptr inbounds [11 x i8], [11 x i8]* %4, i64 0, i64 %85
  store i8 %82, i8* %86, align 1
  br label %87

87:                                               ; preds = %69, %56
  br label %88

88:                                               ; preds = %87
  %89 = load i32, i32* %5, align 4
  %90 = add nsw i32 %89, 1
  store i32 %90, i32* %5, align 4
  br label %51

91:                                               ; preds = %51
  store i32 0, i32* %5, align 4
  br label %92

92:                                               ; preds = %112, %91
  %93 = load i32, i32* %5, align 4
  %94 = load i32, i32* %6, align 4
  %95 = icmp slt i32 %93, %94
  br i1 %95, label %96, label %115

96:                                               ; preds = %92
  %97 = load i32, i32* %5, align 4
  %98 = sext i32 %97 to i64
  %99 = getelementptr inbounds [11 x i8], [11 x i8]* %1, i64 0, i64 %98
  %100 = load i8, i8* %99, align 1
  %101 = sext i8 %100 to i32
  %102 = load i32, i32* %6, align 4
  %103 = sub nsw i32 %102, 1
  %104 = sext i32 %103 to i64
  %105 = getelementptr inbounds [11 x i8], [11 x i8]* %4, i64 0, i64 %104
  %106 = load i8, i8* %105, align 1
  %107 = sext i8 %106 to i32
  %108 = icmp eq i32 %101, %107
  br i1 %108, label %109, label %111

109:                                              ; preds = %96
  %110 = load i32, i32* %5, align 4
  store i32 %110, i32* %7, align 4
  br label %115

111:                                              ; preds = %96
  br label %112

112:                                              ; preds = %111
  %113 = load i32, i32* %5, align 4
  %114 = add nsw i32 %113, 1
  store i32 %114, i32* %5, align 4
  br label %92

115:                                              ; preds = %109, %92
  store i32 0, i32* %5, align 4
  br label %116

116:                                              ; preds = %128, %115
  %117 = load i32, i32* %5, align 4
  %118 = load i32, i32* %7, align 4
  %119 = add nsw i32 %118, 1
  %120 = icmp slt i32 %117, %119
  br i1 %120, label %121, label %131

121:                                              ; preds = %116
  %122 = load i32, i32* %5, align 4
  %123 = sext i32 %122 to i64
  %124 = getelementptr inbounds [11 x i8], [11 x i8]* %1, i64 0, i64 %123
  %125 = load i8, i8* %124, align 1
  %126 = sext i8 %125 to i32
  %127 = call i32 (i8*, ...) @printf(i8* getelementptr inbounds ([3 x i8], [3 x i8]* @.str.1, i64 0, i64 0), i32 %126)
  br label %128

128:                                              ; preds = %121
  %129 = load i32, i32* %5, align 4
  %130 = add nsw i32 %129, 1
  store i32 %130, i32* %5, align 4
  br label %116

131:                                              ; preds = %116
  %132 = getelementptr inbounds [4 x i8], [4 x i8]* %2, i64 0, i64 0
  %133 = call i32 (i8*, ...) @printf(i8* getelementptr inbounds ([3 x i8], [3 x i8]* @.str.2, i64 0, i64 0), i8* %132)
  %134 = load i32, i32* %7, align 4
  %135 = add nsw i32 %134, 1
  store i32 %135, i32* %5, align 4
  br label %136

136:                                              ; preds = %147, %131
  %137 = load i32, i32* %5, align 4
  %138 = load i32, i32* %6, align 4
  %139 = icmp slt i32 %137, %138
  br i1 %139, label %140, label %150

140:                                              ; preds = %136
  %141 = load i32, i32* %5, align 4
  %142 = sext i32 %141 to i64
  %143 = getelementptr inbounds [11 x i8], [11 x i8]* %1, i64 0, i64 %142
  %144 = load i8, i8* %143, align 1
  %145 = sext i8 %144 to i32
  %146 = call i32 (i8*, ...) @printf(i8* getelementptr inbounds ([3 x i8], [3 x i8]* @.str.1, i64 0, i64 0), i32 %145)
  br label %147

147:                                              ; preds = %140
  %148 = load i32, i32* %5, align 4
  %149 = add nsw i32 %148, 1
  store i32 %149, i32* %5, align 4
  br label %136

150:                                              ; preds = %136
  %151 = call i32 (i8*, ...) @printf(i8* getelementptr inbounds ([2 x i8], [2 x i8]* @.str.3, i64 0, i64 0))
  call void @charu()
  br label %152

152:                                              ; preds = %150, %21
  ret void
}

declare dso_local i32 @__isoc99_scanf(i8*, ...) #1

; Function Attrs: nounwind readonly
declare dso_local i64 @strlen(i8*) #2

declare dso_local i32 @printf(i8*, ...) #1

; Function Attrs: noinline nounwind uwtable
define dso_local void @main() #0 {
  call void @charu()
  ret void
}


!llvm.module.flags = !{!0}
!llvm.ident = !{!1}

!0 = !{i32 1, !"wchar_size", i32 4}
!1 = !{!"clang version 10.0.0-4ubuntu1 "}
